target datalayout = "e-m:e-p270:32:32-p271:32:32-p272:64:64-i64:64-i128:128-f80:128-n8:16:32:64-S128"
target triple = "x86_64-pc-linux-gnu"

@H5AC_init_g = global i8 0, align 1
@H5_libterm_g = external global i8, align 1
@.str = private unnamed_addr constant [98 x i8] c"generated/home/dtcxzyw/WorkSpace/Projects/compilers/llvm-opt-benchmark/bench/hdf5/hdf5/src/H5AC.c\00", align 1
@H5E_FUNC_g = external global i64, align 8
@H5E_CANTINIT_g = external global i64, align 8
@.str.1 = private unnamed_addr constant [32 x i8] c"interface initialization failed\00", align 1
@H5E_CACHE_g = external global i64, align 8
@H5E_SYSTEM_g = external global i64, align 8
@__func__.H5AC_get_cache_flush_in_progress = private unnamed_addr constant [33 x i8] c"H5AC_get_cache_flush_in_progress\00", align 1
@.str.40 = private unnamed_addr constant [41 x i8] c"H5C_get_cache_flush_in_progress() failed\00", align 1

; Function Attrs: nounwind uwtable
define i32 @H5AC__init_package() #0 {
  %1 = load i8, ptr @H5AC_init_g, align 1, !tbaa !7, !range !9, !noundef !10
  %2 = trunc i8 %1 to i1
  br i1 %2, label %7, label %3

3:                                                ; preds = %0
  %4 = load i8, ptr @H5_libterm_g, align 1, !tbaa !7, !range !9, !noundef !10
  %5 = trunc i8 %4 to i1
  %6 = xor i1 %5, true
  br label %7

7:                                                ; preds = %3, %0
  %8 = phi i1 [ true, %0 ], [ %6, %3 ]
  %9 = xor i1 %8, true
  %10 = xor i1 %9, true
  %11 = zext i1 %10 to i32
  %12 = sext i32 %11 to i64
  %13 = call i64 @llvm.expect.i64(i64 %12, i64 1)
  %14 = icmp ne i64 %13, 0
  br i1 %14, label %15, label %16

15:                                               ; preds = %7
  br label %16

16:                                               ; preds = %15, %7
  ret i32 0
}

; Function Attrs: nounwind uwtable
define i32 @H5AC_get_cache_flush_in_progress(ptr noundef %0, ptr noundef %1) #0 {
  %3 = alloca ptr, align 8
  %4 = alloca ptr, align 8
  %5 = alloca i32, align 4
  %6 = alloca i8, align 1
  store ptr %0, ptr %3, align 8, !tbaa !42
  store ptr %1, ptr %4, align 8, !tbaa !75
  call void @llvm.lifetime.start.p0(i64 4, ptr %5) #6
  store i32 0, ptr %5, align 4, !tbaa !3
  call void @llvm.lifetime.start.p0(i64 1, ptr %6) #6
  store i8 0, ptr %6, align 1, !tbaa !7
  %7 = load i8, ptr @H5AC_init_g, align 1, !tbaa !7, !range !9, !noundef !10
  %8 = trunc i8 %7 to i1
  br i1 %8, label %13, label %9

9:                                                ; preds = %2
  %10 = load i8, ptr @H5_libterm_g, align 1, !tbaa !7, !range !9, !noundef !10
  %11 = trunc i8 %10 to i1
  %12 = xor i1 %11, true
  br label %13

13:                                               ; preds = %9, %2
  %14 = phi i1 [ false, %2 ], [ %12, %9 ]
  %15 = xor i1 %14, true
  %16 = xor i1 %15, true
  %17 = zext i1 %16 to i32
  %18 = sext i32 %17 to i64
  %19 = call i64 @llvm.expect.i64(i64 %18, i64 0)
  %20 = icmp ne i64 %19, 0
  br i1 %20, label %21, label %44

21:                                               ; preds = %13
  store i8 1, ptr @H5AC_init_g, align 1, !tbaa !7
  %22 = call i32 @H5AC__init_package()
  %23 = icmp slt i32 %22, 0
  br i1 %23, label %24, label %43

24:                                               ; preds = %21
  store i8 0, ptr @H5AC_init_g, align 1, !tbaa !7
  br label %25

25:                                               ; preds = %24
  br label %26

26:                                               ; preds = %25
  br label %27

27:                                               ; preds = %26
  %28 = load i64, ptr @H5E_FUNC_g, align 8, !tbaa !11
  %29 = load i64, ptr @H5E_CANTINIT_g, align 8, !tbaa !11
  %30 = call i32 (ptr, ptr, i32, i64, i64, ptr, ...) @H5E_printf_stack(ptr noundef @.str, ptr noundef @__func__.H5AC_get_cache_flush_in_progress, i32 noundef 1727, i64 noundef %28, i64 noundef %29, ptr noundef @.str.1)
  br label %31

31:                                               ; preds = %27
  br label %32

32:                                               ; preds = %31
  store i8 1, ptr %6, align 1, !tbaa !7
  %33 = load i8, ptr %6, align 1, !tbaa !7, !range !9, !noundef !10
  %34 = trunc i8 %33 to i1
  %35 = zext i1 %34 to i8
  store i8 %35, ptr %6, align 1, !tbaa !7
  br label %36

36:                                               ; preds = %32
  br label %37

37:                                               ; preds = %36
  br label %38

38:                                               ; preds = %37
  store i32 -1, ptr %5, align 4, !tbaa !3
  br label %84

39:                                               ; No predecessors!
  br label %40

40:                                               ; preds = %39
  br label %41

41:                                               ; preds = %40
  br label %42

42:                                               ; preds = %41
  br label %43

43:                                               ; preds = %42, %21
  br label %44

44:                                               ; preds = %43, %13
  %45 = load i8, ptr @H5AC_init_g, align 1, !tbaa !7, !range !9, !noundef !10
  %46 = trunc i8 %45 to i1
  br i1 %46, label %51, label %47

47:                                               ; preds = %44
  %48 = load i8, ptr @H5_libterm_g, align 1, !tbaa !7, !range !9, !noundef !10
  %49 = trunc i8 %48 to i1
  %50 = xor i1 %49, true
  br label %51

51:                                               ; preds = %47, %44
  %52 = phi i1 [ true, %44 ], [ %50, %47 ]
  %53 = xor i1 %52, true
  %54 = xor i1 %53, true
  %55 = zext i1 %54 to i32
  %56 = sext i32 %55 to i64
  %57 = call i64 @llvm.expect.i64(i64 %56, i64 1)
  %58 = icmp ne i64 %57, 0
  br i1 %58, label %59, label %85

59:                                               ; preds = %51
  %60 = load ptr, ptr %3, align 8, !tbaa !42
  %61 = load ptr, ptr %4, align 8, !tbaa !75
  %62 = call i32 @H5C_get_cache_flush_in_progress(ptr noundef %60, ptr noundef %61)
  %63 = icmp slt i32 %62, 0
  br i1 %63, label %64, label %83

64:                                               ; preds = %59
  br label %65

65:                                               ; preds = %64
  br label %66

66:                                               ; preds = %65
  br label %67

67:                                               ; preds = %66
  %68 = load i64, ptr @H5E_CACHE_g, align 8, !tbaa !11
  %69 = load i64, ptr @H5E_SYSTEM_g, align 8, !tbaa !11
  %70 = call i32 (ptr, ptr, i32, i64, i64, ptr, ...) @H5E_printf_stack(ptr noundef @.str, ptr noundef @__func__.H5AC_get_cache_flush_in_progress, i32 noundef 1730, i64 noundef %68, i64 noundef %69, ptr noundef @.str.40)
  br label %71

71:                                               ; preds = %67
  br label %72

72:                                               ; preds = %71
  store i8 1, ptr %6, align 1, !tbaa !7
  %73 = load i8, ptr %6, align 1, !tbaa !7, !range !9, !noundef !10
  %74 = trunc i8 %73 to i1
  %75 = zext i1 %74 to i8
  store i8 %75, ptr %6, align 1, !tbaa !7
  br label %76

76:                                               ; preds = %72
  br label %77

77:                                               ; preds = %76
  br label %78

78:                                               ; preds = %77
  store i32 -1, ptr %5, align 4, !tbaa !3
  br label %84

79:                                               ; No predecessors!
  br label %80

80:                                               ; preds = %79
  br label %81

81:                                               ; preds = %80
  br label %82

82:                                               ; preds = %81
  br label %83

83:                                               ; preds = %82, %59
  br label %84

84:                                               ; preds = %83, %78, %38
  br label %85

85:                                               ; preds = %84, %51
  %86 = load i32, ptr %5, align 4, !tbaa !3
  call void @llvm.lifetime.end.p0(i64 1, ptr %6) #6
  call void @llvm.lifetime.end.p0(i64 4, ptr %5) #6
  ret i32 %86
}